; ModuleID = '11/678.c'
source_filename = "11/678.c"
target datalayout = "e-m:e-p270:32:32-p271:32:32-p272:64:64-i64:64-f80:128-n8:16:32:64-S128"
target triple = "x86_64-pc-linux-gnu"

@.str = private unnamed_addr constant [7 x i8] c"%d%d%d\00", align 1
@.str.1 = private unnamed_addr constant [4 x i8] c"%d\0A\00", align 1

; Function Attrs: noinline nounwind uwtable
define dso_local i32 @main(i32 %0, i8** %1) #0 {
  %3 = alloca i32, align 4
  %4 = alloca i32, align 4
  %5 = alloca i8**, align 8
  %6 = alloca i32, align 4
  %7 = alloca i32, align 4
  %8 = alloca i32, align 4
  %9 = alloca i32, align 4
  %10 = alloca i32, align 4
  store i32 0, i32* %3, align 4
  store i32 %0, i32* %4, align 4
  store i8** %1, i8*** %5, align 8
  store i32 0, i32* %9, align 4
  %11 = call i32 (i8*, ...) @__isoc99_scanf(i8* getelementptr inbounds ([7 x i8], [7 x i8]* @.str, i64 0, i64 0), i32* %6, i32* %7, i32* %8)
  store i32 1, i32* %10, align 4
  br label %12

12:                                               ; preds = %67, %2
  %13 = load i32, i32* %10, align 4
  %14 = load i32, i32* %7, align 4
  %15 = icmp slt i32 %13, %14
  br i1 %15, label %16, label %70

16:                                               ; preds = %12
  %17 = load i32, i32* %10, align 4
  %18 = icmp eq i32 %17, 1
  br i1 %18, label %37, label %19

19:                                               ; preds = %16
  %20 = load i32, i32* %10, align 4
  %21 = icmp eq i32 %20, 3
  br i1 %21, label %37, label %22

22:                                               ; preds = %19
  %23 = load i32, i32* %10, align 4
  %24 = icmp eq i32 %23, 5
  br i1 %24, label %37, label %25

25:                                               ; preds = %22
  %26 = load i32, i32* %10, align 4
  %27 = icmp eq i32 %26, 7
  br i1 %27, label %37, label %28

28:                                               ; preds = %25
  %29 = load i32, i32* %10, align 4
  %30 = icmp eq i32 %29, 8
  br i1 %30, label %37, label %31

31:                                               ; preds = %28
  %32 = load i32, i32* %10, align 4
  %33 = icmp eq i32 %32, 10
  br i1 %33, label %37, label %34

34:                                               ; preds = %31
  %35 = load i32, i32* %10, align 4
  %36 = icmp eq i32 %35, 12
  br i1 %36, label %37, label %40

37:                                               ; preds = %34, %31, %28, %25, %22, %19, %16
  %38 = load i32, i32* %9, align 4
  %39 = add nsw i32 %38, 31
  store i32 %39, i32* %9, align 4
  br label %66

40:                                               ; preds = %34
  %41 = load i32, i32* %10, align 4
  %42 = icmp eq i32 %41, 2
  br i1 %42, label %43, label %62

43:                                               ; preds = %40
  %44 = load i32, i32* %6, align 4
  %45 = srem i32 %44, 400
  %46 = icmp eq i32 %45, 0
  br i1 %46, label %55, label %47

47:                                               ; preds = %43
  %48 = load i32, i32* %6, align 4
  %49 = srem i32 %48, 4
  %50 = icmp eq i32 %49, 0
  br i1 %50, label %51, label %58

51:                                               ; preds = %47
  %52 = load i32, i32* %6, align 4
  %53 = srem i32 %52, 100
  %54 = icmp ne i32 %53, 0
  br i1 %54, label %55, label %58

55:                                               ; preds = %51, %43
  %56 = load i32, i32* %9, align 4
  %57 = add nsw i32 %56, 29
  store i32 %57, i32* %9, align 4
  br label %61

58:                                               ; preds = %51, %47
  %59 = load i32, i32* %9, align 4
  %60 = add nsw i32 %59, 28
  store i32 %60, i32* %9, align 4
  br label %61

61:                                               ; preds = %58, %55
  br label %65

62:                                               ; preds = %40
  %63 = load i32, i32* %9, align 4
  %64 = add nsw i32 %63, 30
  store i32 %64, i32* %9, align 4
  br label %65

65:                                               ; preds = %62, %61
  br label %66

66:                                               ; preds = %65, %37
  br label %67

67:                                               ; preds = %66
  %68 = load i32, i32* %10, align 4
  %69 = add nsw i32 %68, 1
  store i32 %69, i32* %10, align 4
  br label %12

70:                                               ; preds = %12
  %71 = load i32, i32* %8, align 4
  %72 = load i32, i32* %9, align 4
  %73 = add nsw i32 %72, %71
  store i32 %73, i32* %9, align 4
  %74 = load i32, i32* %9, align 4
  %75 = call i32 (i8*, ...) @printf(i8* getelementptr inbounds ([4 x i8], [4 x i8]* @.str.1, i64 0, i64 0), i32 %74)
  ret i32 0
}

declare dso_local i32 @__isoc99_scanf(i8*, ...) #1

declare dso_local i32 @printf(i8*, ...) #1


!llvm.module.flags = !{!0}
!llvm.ident = !{!1}

!0 = !{i32 1, !"wchar_size", i32 4}
!1 = !{!"clang version 10.0.0-4ubuntu1 "}
